; Function Attrs: mustprogress nofree norecurse nosync nounwind sspstrong willreturn memory(read, inaccessiblemem: none) uwtable
define internal i64 @range_end(i64 noundef %0) #4 {
  %2 = inttoptr i64 %0 to ptr
  %3 = load i64, ptr %2, align 8, !tbaa !11
  %4 = and i64 %3, 1040384
  %.not.i.i.i = icmp eq i64 %4, 0
  br i1 %.not.i.i.i, label %7, label %5

5:                                                ; preds = %1
  %6 = getelementptr inbounds nuw i8, ptr %2, i64 16
  br label %RANGE_END.exit

7:                                                ; preds = %1
  %8 = getelementptr inbounds nuw i8, ptr %2, i64 24
  %9 = load ptr, ptr %8, align 8, !tbaa !13
  br label %RANGE_END.exit

RANGE_END.exit:                                   ; preds = %5, %7
  %.0.i.i.i = phi ptr [ %6, %5 ], [ %9, %7 ]
  %10 = getelementptr i8, ptr %.0.i.i.i, i64 8
  %11 = load i64, ptr %10, align 8, !tbaa !7
  ret i64 %11
}